target datalayout = "e-m:e-p270:32:32-p271:32:32-p272:64:64-i64:64-i128:128-f80:128-n8:16:32:64-S128"
target triple = "x86_64-pc-linux-gnu"

%struct.archive_write = type { %struct.archive, i32, i64, i64, ptr, i64, ptr, ptr, ptr, ptr, ptr, i32, i32, ptr, ptr, ptr, ptr, ptr, ptr, ptr, ptr, ptr, ptr, ptr, ptr, ptr, ptr }
%struct.archive = type { i32, i32, ptr, i32, ptr, i32, i32, ptr, %struct.archive_string, ptr, i32, i32, ptr, ptr, i64, i64, i64, i8, i64 }
%struct.archive_string = type { ptr, i64, i64 }

; Function Attrs: nounwind uwtable
define dso_local ptr @archive_write_new() #0 {
  %1 = alloca ptr, align 8
  %2 = alloca ptr, align 8
  %3 = alloca ptr, align 8
  %4 = alloca i32, align 4
  call void @llvm.lifetime.start.p0(i64 8, ptr %2) #9
  call void @llvm.lifetime.start.p0(i64 8, ptr %3) #9
  %5 = call noalias ptr @calloc(i64 noundef 1, i64 noundef 344) #10
  store ptr %5, ptr %2, align 8, !tbaa !4
  %6 = load ptr, ptr %2, align 8, !tbaa !4
  %7 = icmp eq ptr %6, null
  br i1 %7, label %8, label %9

8:                                                ; preds = %0
  store ptr null, ptr %1, align 8
  store i32 1, ptr %4, align 4
  br label %39

9:                                                ; preds = %0
  %10 = load ptr, ptr %2, align 8, !tbaa !4
  %11 = getelementptr inbounds nuw %struct.archive_write, ptr %10, i32 0, i32 0
  %12 = getelementptr inbounds nuw %struct.archive, ptr %11, i32 0, i32 0
  store i32 -1329217314, ptr %12, align 8, !tbaa !9
  %13 = load ptr, ptr %2, align 8, !tbaa !4
  %14 = getelementptr inbounds nuw %struct.archive_write, ptr %13, i32 0, i32 0
  %15 = getelementptr inbounds nuw %struct.archive, ptr %14, i32 0, i32 1
  store i32 1, ptr %15, align 4, !tbaa !19
  %16 = load ptr, ptr %2, align 8, !tbaa !4
  %17 = getelementptr inbounds nuw %struct.archive_write, ptr %16, i32 0, i32 0
  %18 = getelementptr inbounds nuw %struct.archive, ptr %17, i32 0, i32 2
  store ptr @archive_write_vtable, ptr %18, align 8, !tbaa !20
  %19 = load ptr, ptr %2, align 8, !tbaa !4
  %20 = getelementptr inbounds nuw %struct.archive_write, ptr %19, i32 0, i32 11
  store i32 10240, ptr %20, align 8, !tbaa !21
  %21 = load ptr, ptr %2, align 8, !tbaa !4
  %22 = getelementptr inbounds nuw %struct.archive_write, ptr %21, i32 0, i32 12
  store i32 -1, ptr %22, align 4, !tbaa !22
  %23 = load ptr, ptr %2, align 8, !tbaa !4
  %24 = getelementptr inbounds nuw %struct.archive_write, ptr %23, i32 0, i32 5
  store i64 1024, ptr %24, align 8, !tbaa !23
  %25 = load ptr, ptr %2, align 8, !tbaa !4
  %26 = getelementptr inbounds nuw %struct.archive_write, ptr %25, i32 0, i32 5
  %27 = load i64, ptr %26, align 8, !tbaa !23
  %28 = call noalias ptr @calloc(i64 noundef %27, i64 noundef 1) #10
  store ptr %28, ptr %3, align 8, !tbaa !24
  %29 = load ptr, ptr %3, align 8, !tbaa !24
  %30 = icmp eq ptr %29, null
  br i1 %30, label %31, label %33

31:                                               ; preds = %9
  %32 = load ptr, ptr %2, align 8, !tbaa !4
  call void @free(ptr noundef %32) #9
  store ptr null, ptr %1, align 8
  store i32 1, ptr %4, align 4
  br label %39

33:                                               ; preds = %9
  %34 = load ptr, ptr %3, align 8, !tbaa !24
  %35 = load ptr, ptr %2, align 8, !tbaa !4
  %36 = getelementptr inbounds nuw %struct.archive_write, ptr %35, i32 0, i32 4
  store ptr %34, ptr %36, align 8, !tbaa !25
  %37 = load ptr, ptr %2, align 8, !tbaa !4
  %38 = getelementptr inbounds nuw %struct.archive_write, ptr %37, i32 0, i32 0
  store ptr %38, ptr %1, align 8
  store i32 1, ptr %4, align 4
  br label %39

39:                                               ; preds = %33, %31, %8
  call void @llvm.lifetime.end.p0(i64 8, ptr %3) #9
  call void @llvm.lifetime.end.p0(i64 8, ptr %2) #9
  %40 = load ptr, ptr %1, align 8
  ret ptr %40
}