; Function Attrs: mustprogress nounwind willreturn memory(readwrite, argmem: none) uwtable
define dso_local noalias noundef ptr @archive_write_new() local_unnamed_addr #0 {
  %1 = tail call noalias dereferenceable_or_null(344) ptr @calloc(i64 noundef 1, i64 noundef 344) #12
  %2 = icmp eq ptr %1, null
  br i1 %2, label %14, label %3

3:                                                ; preds = %0
  store i32 -1329217314, ptr %1, align 8, !tbaa !4
  %4 = getelementptr inbounds nuw i8, ptr %1, i64 4
  store i32 1, ptr %4, align 4, !tbaa !17
  %5 = getelementptr inbounds nuw i8, ptr %1, i64 8
  store ptr @archive_write_vtable, ptr %5, align 8, !tbaa !18
  %6 = getelementptr inbounds nuw i8, ptr %1, i64 224
  store i32 10240, ptr %6, align 8, !tbaa !19
  %7 = getelementptr inbounds nuw i8, ptr %1, i64 228
  store i32 -1, ptr %7, align 4, !tbaa !20
  %8 = getelementptr inbounds nuw i8, ptr %1, i64 176
  store i64 1024, ptr %8, align 8, !tbaa !21
  %9 = tail call noalias dereferenceable_or_null(1024) ptr @calloc(i64 noundef 1024, i64 noundef 1) #12
  %10 = icmp eq ptr %9, null
  br i1 %10, label %11, label %12

11:                                               ; preds = %3
  tail call void @free(ptr noundef nonnull %1) #13
  br label %14

12:                                               ; preds = %3
  %13 = getelementptr inbounds nuw i8, ptr %1, i64 168
  store ptr %9, ptr %13, align 8, !tbaa !22
  br label %14

14:                                               ; preds = %0, %12, %11
  %.0 = phi ptr [ null, %11 ], [ %1, %12 ], [ null, %0 ]
  ret ptr %.0
}